target datalayout = "e-m:e-p270:32:32-p271:32:32-p272:64:64-i64:64-i128:128-f80:128-n8:16:32:64-S128"
target triple = "x86_64-pc-linux-gnu"

@common_log_verbosity_thold = external global i32, align 4
@.str.65 = private unnamed_addr constant [77 x i8] c"%s: llama.cpp built without libcurl, downloading from an url not supported.\0A\00", align 1
@__func__._Z26common_load_model_from_urlRKNSt7__cxx1112basic_stringIcSt11char_traitsIcESaIcEEES6_S6_RK18llama_model_params = private unnamed_addr constant [27 x i8] c"common_load_model_from_url\00", align 1

; Function Attrs: mustprogress uwtable
define noundef ptr @_Z26common_load_model_from_urlRKNSt7__cxx1112basic_stringIcSt11char_traitsIcESaIcEEES6_S6_RK18llama_model_params(ptr noundef nonnull align 8 dereferenceable(32) %0, ptr noundef nonnull align 8 dereferenceable(32) %1, ptr noundef nonnull align 8 dereferenceable(32) %2, ptr noundef nonnull align 8 dereferenceable(64) %3) #4 {
  %5 = alloca ptr, align 8
  %6 = alloca ptr, align 8
  %7 = alloca ptr, align 8
  %8 = alloca ptr, align 8
  store ptr %0, ptr %5, align 8, !tbaa !14
  store ptr %1, ptr %6, align 8, !tbaa !14
  store ptr %2, ptr %7, align 8, !tbaa !14
  store ptr %3, ptr %8, align 8, !tbaa !273
  br label %9

9:                                                ; preds = %4
  %10 = load i32, ptr @common_log_verbosity_thold, align 4, !tbaa !3
  %11 = icmp sle i32 0, %10
  br i1 %11, label %12, label %14

12:                                               ; preds = %9
  %13 = call noundef ptr @_Z15common_log_mainv()
  call void (ptr, i32, ptr, ...) @_Z14common_log_addP10common_log14ggml_log_levelPKcz(ptr noundef %13, i32 noundef 3, ptr noundef @.str.65, ptr noundef @__func__._Z26common_load_model_from_urlRKNSt7__cxx1112basic_stringIcSt11char_traitsIcESaIcEEES6_S6_RK18llama_model_params)
  br label %14

14:                                               ; preds = %12, %9
  br label %15

15:                                               ; preds = %14
  ret ptr null
}