; Function Attrs: mustprogress uwtable
define noalias noundef ptr @_Z26common_load_model_from_urlRKNSt7__cxx1112basic_stringIcSt11char_traitsIcESaIcEEES6_S6_RK18llama_model_params(ptr noundef nonnull readnone align 8 captures(none) dereferenceable(32) %0, ptr noundef nonnull readnone align 8 captures(none) dereferenceable(32) %1, ptr noundef nonnull readnone align 8 captures(none) dereferenceable(32) %2, ptr noundef nonnull readnone align 8 captures(none) dereferenceable(64) %3) local_unnamed_addr #3 {
  %5 = load i32, ptr @common_log_verbosity_thold, align 4, !tbaa !72
  %6 = icmp sgt i32 %5, -1
  br i1 %6, label %7, label %9

7:                                                ; preds = %4
  %8 = tail call noundef ptr @_Z15common_log_mainv()
  tail call void (ptr, i32, ptr, ...) @_Z14common_log_addP10common_log14ggml_log_levelPKcz(ptr noundef %8, i32 noundef 3, ptr noundef nonnull @.str.65, ptr noundef nonnull @__func__._Z26common_load_model_from_urlRKNSt7__cxx1112basic_stringIcSt11char_traitsIcESaIcEEES6_S6_RK18llama_model_params)
  br label %9

9:                                                ; preds = %4, %7
  ret ptr null
}